; Function Attrs: nounwind uwtable
define internal void @_ReadExtraToc(ptr noundef %0, ptr noundef captures(none) %1) #0 {
  %3 = getelementptr inbounds nuw i8, ptr %1, i64 152
  %4 = load ptr, ptr %3, align 8
  %5 = icmp eq ptr %4, null
  br i1 %5, label %6, label %8

6:                                                ; preds = %2
  %7 = tail call ptr @pg_malloc0(i64 noundef 16) #7
  store ptr %7, ptr %3, align 8
  br label %8

8:                                                ; preds = %6, %2
  %.0 = phi ptr [ %7, %6 ], [ %4, %2 ]
  %9 = getelementptr inbounds nuw i8, ptr %.0, i64 8
  %10 = tail call i32 @ReadOffset(ptr noundef %0, ptr noundef nonnull %9) #7
  store i32 %10, ptr %.0, align 8
  %11 = getelementptr inbounds nuw i8, ptr %0, i64 104
  %12 = load i32, ptr %11, align 8
  %13 = icmp slt i32 %12, 67328
  br i1 %13, label %14, label %16

14:                                               ; preds = %8
  %15 = tail call i32 @ReadInt(ptr noundef nonnull %0) #7
  br label %16

16:                                               ; preds = %14, %8
  ret void
}